; Function Attrs: mustprogress uwtable
define hidden noundef zeroext i1 @_ZNK3nla7emonics12is_canonizedERKNS_5monicE(ptr nocapture noundef nonnull readonly align 8 dereferenceable(216) %this, ptr noundef nonnull align 8 dereferenceable(34) %m) local_unnamed_addr #4 align 2 personality ptr @__gxx_personality_v0 {
entry:
  %mm = alloca %"class.nla::monic", align 8
  call void @_ZN3nla5monicC2ERKS0_(ptr noundef nonnull align 8 dereferenceable(34) %mm, ptr noundef nonnull align 8 dereferenceable(34) %m)
  invoke void @_ZNK3nla7emonics11do_canonizeERNS_5monicE(ptr noundef nonnull align 8 dereferenceable(216) %this, ptr noundef nonnull align 8 dereferenceable(34) %mm)
          to label %invoke.cont unwind label %lpad

invoke.cont:                                      ; preds = %entry
  %m_rvars.i = getelementptr inbounds i8, ptr %mm, i64 16
  %m_rvars.i2 = getelementptr inbounds i8, ptr %m, i64 16
  %cmp.i = icmp eq ptr %mm, %m
  %.pre = load ptr, ptr %m_rvars.i, align 8
  br i1 %cmp.i, label %_ZNK6vectorIjLb0EjEeqERKS0_.exit, label %if.end.i

if.end.i:                                         ; preds = %invoke.cont
  %cmp.i.i = icmp eq ptr %.pre, null
  br i1 %cmp.i.i, label %_ZNK6vectorIjLb0EjE4sizeEv.exit.i, label %if.end.i.i

if.end.i.i:                                       ; preds = %if.end.i
  %arrayidx.i.i = getelementptr inbounds i8, ptr %.pre, i64 -4
  %0 = load i32, ptr %arrayidx.i.i, align 4
  br label %_ZNK6vectorIjLb0EjE4sizeEv.exit.i

_ZNK6vectorIjLb0EjE4sizeEv.exit.i:                ; preds = %if.end.i.i, %if.end.i
  %retval.0.i.i = phi i32 [ %0, %if.end.i.i ], [ 0, %if.end.i ]
  %1 = load ptr, ptr %m_rvars.i2, align 8
  %cmp.i6.i = icmp eq ptr %1, null
  br i1 %cmp.i6.i, label %_ZNK6vectorIjLb0EjE4sizeEv.exit10.i, label %if.end.i7.i

if.end.i7.i:                                      ; preds = %_ZNK6vectorIjLb0EjE4sizeEv.exit.i
  %arrayidx.i8.i = getelementptr inbounds i8, ptr %1, i64 -4
  %2 = load i32, ptr %arrayidx.i8.i, align 4
  br label %_ZNK6vectorIjLb0EjE4sizeEv.exit10.i

_ZNK6vectorIjLb0EjE4sizeEv.exit10.i:              ; preds = %if.end.i7.i, %_ZNK6vectorIjLb0EjE4sizeEv.exit.i
  %retval.0.i9.i = phi i32 [ %2, %if.end.i7.i ], [ 0, %_ZNK6vectorIjLb0EjE4sizeEv.exit.i ]
  %cmp3.not.i = icmp ne i32 %retval.0.i.i, %retval.0.i9.i
  %brmerge.i = or i1 %cmp.i.i, %cmp3.not.i
  %not.cmp3.not.i = xor i1 %cmp3.not.i, true
  br i1 %brmerge.i, label %_ZNK6vectorIjLb0EjEeqERKS0_.exit, label %for.cond.preheader.split.i

for.cond.preheader.split.i:                       ; preds = %_ZNK6vectorIjLb0EjE4sizeEv.exit10.i
  %arrayidx.i13.i = getelementptr inbounds i8, ptr %.pre, i64 -4
  %3 = load i32, ptr %arrayidx.i13.i, align 4
  %wide.trip.count.i = zext i32 %3 to i64
  br label %for.cond.i

for.cond.i:                                       ; preds = %for.body.i, %for.cond.preheader.split.i
  %indvars.iv.i = phi i64 [ %indvars.iv.next.i, %for.body.i ], [ 0, %for.cond.preheader.split.i ]
  %exitcond.not.i = icmp eq i64 %indvars.iv.i, %wide.trip.count.i
  br i1 %exitcond.not.i, label %if.then.i.i.i.i, label %for.body.i

for.body.i:                                       ; preds = %for.cond.i
  %arrayidx.i16.i = getelementptr inbounds i32, ptr %.pre, i64 %indvars.iv.i
  %4 = load i32, ptr %arrayidx.i16.i, align 4
  %arrayidx.i18.i = getelementptr inbounds i32, ptr %1, i64 %indvars.iv.i
  %5 = load i32, ptr %arrayidx.i18.i, align 4
  %cmp10.not.i = icmp eq i32 %4, %5
  %indvars.iv.next.i = add nuw nsw i64 %indvars.iv.i, 1
  br i1 %cmp10.not.i, label %for.cond.i, label %if.then.i.i.i.i, !llvm.loop !22

_ZNK6vectorIjLb0EjEeqERKS0_.exit:                 ; preds = %invoke.cont, %_ZNK6vectorIjLb0EjE4sizeEv.exit10.i
  %retval.0.i = phi i1 [ true, %invoke.cont ], [ %not.cmp3.not.i, %_ZNK6vectorIjLb0EjE4sizeEv.exit10.i ]
  %tobool.not.i.i.i.i = icmp eq ptr %.pre, null
  br i1 %tobool.not.i.i.i.i, label %_ZN7svectorIjjED2Ev.exit.i, label %if.then.i.i.i.i

if.then.i.i.i.i:                                  ; preds = %for.body.i, %for.cond.i, %_ZNK6vectorIjLb0EjEeqERKS0_.exit
  %retval.0.i6 = phi i1 [ %retval.0.i, %_ZNK6vectorIjLb0EjEeqERKS0_.exit ], [ %exitcond.not.i, %for.cond.i ], [ %exitcond.not.i, %for.body.i ]
  %add.ptr.i.i.i.i.i = getelementptr inbounds i8, ptr %.pre, i64 -8
  invoke void @_ZN6memory10deallocateEPv(ptr noundef nonnull %add.ptr.i.i.i.i.i)
          to label %_ZN7svectorIjjED2Ev.exit.i unwind label %terminate.lpad.i.i.i

terminate.lpad.i.i.i:                             ; preds = %if.then.i.i.i.i
  %6 = landingpad { ptr, i32 }
          catch ptr null
  %7 = extractvalue { ptr, i32 } %6, 0
  call void @__clang_call_terminate(ptr %7) #23
  unreachable

_ZN7svectorIjjED2Ev.exit.i:                       ; preds = %if.then.i.i.i.i, %_ZNK6vectorIjLb0EjEeqERKS0_.exit
  %retval.0.i7 = phi i1 [ %retval.0.i6, %if.then.i.i.i.i ], [ %retval.0.i, %_ZNK6vectorIjLb0EjEeqERKS0_.exit ]
  %m_vs.i.i = getelementptr inbounds i8, ptr %mm, i64 8
  %8 = load ptr, ptr %m_vs.i.i, align 8
  %tobool.not.i.i.i.i.i = icmp eq ptr %8, null
  br i1 %tobool.not.i.i.i.i.i, label %_ZN3nla5monicD2Ev.exit, label %if.then.i.i.i.i.i

if.then.i.i.i.i.i:                                ; preds = %_ZN7svectorIjjED2Ev.exit.i
  %add.ptr.i.i.i.i.i.i = getelementptr inbounds i8, ptr %8, i64 -8
  invoke void @_ZN6memory10deallocateEPv(ptr noundef nonnull %add.ptr.i.i.i.i.i.i)
          to label %_ZN3nla5monicD2Ev.exit unwind label %terminate.lpad.i.i.i.i

terminate.lpad.i.i.i.i:                           ; preds = %if.then.i.i.i.i.i
  %9 = landingpad { ptr, i32 }
          catch ptr null
  %10 = extractvalue { ptr, i32 } %9, 0
  call void @__clang_call_terminate(ptr %10) #23
  unreachable

_ZN3nla5monicD2Ev.exit:                           ; preds = %_ZN7svectorIjjED2Ev.exit.i, %if.then.i.i.i.i.i
  ret i1 %retval.0.i7

lpad:                                             ; preds = %entry
  %11 = landingpad { ptr, i32 }
          cleanup
  call void @_ZN3nla5monicD2Ev(ptr noundef nonnull align 8 dereferenceable(34) %mm) #24
  resume { ptr, i32 } %11
}